; Function Attrs: mustprogress uwtable
define noundef i32 @_ZNK6icu_7712UnifiedCache8keyCountEv(ptr noundef nonnull readonly align 8 captures(none) dereferenceable(56) %0) local_unnamed_addr #0 align 2 personality ptr @__gxx_personality_v0 {
  %2 = load ptr, ptr @_ZL11gCacheMutex, align 8, !tbaa !9
  %3 = tail call noundef i32 @pthread_mutex_lock(ptr noundef nonnull align 8 dereferenceable(40) %2) #16
  %.not.i.i = icmp eq i32 %3, 0
  br i1 %.not.i.i, label %_ZNSt10lock_guardISt5mutexEC2ERS0_.exit, label %4

4:                                                ; preds = %1
  tail call void @_ZSt20__throw_system_errori(i32 noundef %3) #18
  unreachable

_ZNSt10lock_guardISt5mutexEC2ERS0_.exit:          ; preds = %1
  %5 = getelementptr inbounds nuw i8, ptr %0, i64 8
  %6 = load ptr, ptr %5, align 8, !tbaa !21
  %7 = invoke i32 @uhash_count_77(ptr noundef %6)
          to label %8 unwind label %10

8:                                                ; preds = %_ZNSt10lock_guardISt5mutexEC2ERS0_.exit
  %9 = tail call noundef i32 @pthread_mutex_unlock(ptr noundef nonnull align 8 dereferenceable(40) %2) #16
  ret i32 %7

10:                                               ; preds = %_ZNSt10lock_guardISt5mutexEC2ERS0_.exit
  %11 = landingpad { ptr, i32 }
          cleanup
  %12 = tail call noundef i32 @pthread_mutex_unlock(ptr noundef nonnull align 8 dereferenceable(40) %2) #16
  resume { ptr, i32 } %11
}